; Function Attrs: mustprogress nofree norecurse nosync nounwind willreturn memory(read, inaccessiblemem: none) uwtable
define noundef signext i8 @_ZNK6icu_759UVector3211containsAllERKS0_(ptr nocapture noundef nonnull readonly align 8 dereferenceable(32) %this, ptr nocapture noundef nonnull readonly align 8 dereferenceable(32) %other) local_unnamed_addr #7 align 2 {
entry:
  %count.i = getelementptr inbounds i8, ptr %other, i64 8
  %0 = load i32, ptr %count.i, align 8
  %cmp9 = icmp sgt i32 %0, 0
  br i1 %cmp9, label %for.body.lr.ph, label %return

for.body.lr.ph:                                   ; preds = %entry
  %elements = getelementptr inbounds i8, ptr %other, i64 24
  %1 = load ptr, ptr %elements, align 8
  %count.i4 = getelementptr inbounds i8, ptr %this, i64 8
  %2 = load i32, ptr %count.i4, align 8
  %cmp4.i = icmp sgt i32 %2, 0
  %elements.i = getelementptr inbounds i8, ptr %this, i64 24
  %3 = load ptr, ptr %elements.i, align 8
  br i1 %cmp4.i, label %for.body.preheader, label %return

for.body.preheader:                               ; preds = %for.body.lr.ph
  %wide.trip.count = zext nneg i32 %0 to i64
  %zext = zext nneg i32 %2 to i64
  br label %for.body

for.cond:                                         ; preds = %_ZNK6icu_759UVector327indexOfEii.exit
  %indvars.iv.next = add nuw nsw i64 %indvars.iv, 1
  %exitcond.not = icmp eq i64 %indvars.iv.next, %wide.trip.count
  br i1 %exitcond.not, label %return, label %for.body, !llvm.loop !9

for.body:                                         ; preds = %for.body.preheader, %for.cond
  %indvars.iv = phi i64 [ 0, %for.body.preheader ], [ %indvars.iv.next, %for.cond ]
  %arrayidx = getelementptr inbounds i32, ptr %1, i64 %indvars.iv
  %4 = load i32, ptr %arrayidx, align 4
  br label %for.body.i

for.body.i:                                       ; preds = %for.inc.i, %for.body
  %indvars.iv.i = phi i64 [ 0, %for.body ], [ %indvars.iv.next.i, %for.inc.i ]
  %arrayidx.i = getelementptr inbounds i32, ptr %3, i64 %indvars.iv.i
  %5 = load i32, ptr %arrayidx.i, align 4
  %cmp2.i = icmp eq i32 %5, %4
  br i1 %cmp2.i, label %_ZNK6icu_759UVector327indexOfEii.exit, label %for.inc.i

for.inc.i:                                        ; preds = %for.body.i
  %indvars.iv.next.i = add nuw nsw i64 %indvars.iv.i, 1
  %6 = icmp eq i64 %indvars.iv.next.i, %zext
  br i1 %6, label %return, label %for.body.i, !llvm.loop !10

_ZNK6icu_759UVector327indexOfEii.exit:            ; preds = %for.body.i
  %7 = and i64 %indvars.iv.i, 2147483648
  %cmp3.not = icmp eq i64 %7, 0
  br i1 %cmp3.not, label %for.cond, label %return

return:                                           ; preds = %_ZNK6icu_759UVector327indexOfEii.exit, %for.cond, %for.inc.i, %entry, %for.body.lr.ph
  %retval.0 = phi i8 [ 1, %entry ], [ 0, %for.body.lr.ph ], [ 0, %for.inc.i ], [ 0, %_ZNK6icu_759UVector327indexOfEii.exit ], [ 1, %for.cond ]
  ret i8 %retval.0
}